; Function Attrs: mustprogress uwtable
define dso_local void @_ZN3net22QuicCryptoServerConfig37set_strike_register_no_startup_periodEv(ptr noundef nonnull align 8 dereferenceable(405) %this) local_unnamed_addr #0 align 2 personality ptr @__gxx_personality_v0 {
entry:
  %strike_register_client_lock_ = getelementptr inbounds i8, ptr %this, i64 128
  tail call void @_ZN4base8internal8LockImpl4LockEv(ptr noundef nonnull align 8 dereferenceable(40) %strike_register_client_lock_)
  %strike_register_no_startup_period_ = getelementptr inbounds i8, ptr %this, i64 376
  store i8 1, ptr %strike_register_no_startup_period_, align 8
  invoke void @_ZN4base8internal8LockImpl6UnlockEv(ptr noundef nonnull align 8 dereferenceable(40) %strike_register_client_lock_)
          to label %_ZN4base8AutoLockD2Ev.exit unwind label %terminate.lpad.i

terminate.lpad.i:                                 ; preds = %entry
  %0 = landingpad { ptr, i32 }
          catch ptr null
  %1 = extractvalue { ptr, i32 } %0, 0
  tail call void @__clang_call_terminate(ptr %1) #24
  unreachable

_ZN4base8AutoLockD2Ev.exit:                       ; preds = %entry
  ret void
}